target datalayout = "e-m:e-p270:32:32-p271:32:32-p272:64:64-i64:64-i128:128-f80:128-n8:16:32:64-S128"
target triple = "x86_64-pc-linux-gnu"

%struct.dsa_st = type { i32, i32, %struct.ffc_params_st, ptr, ptr, i32, ptr, %struct.CRYPTO_REF_COUNT, %struct.crypto_ex_data_st, ptr, ptr, ptr, ptr, i64 }
%struct.ffc_params_st = type { ptr, ptr, ptr, ptr, ptr, i64, i32, i32, i32, i32, i32, ptr, ptr, i32 }
%struct.CRYPTO_REF_COUNT = type { i32 }
%struct.crypto_ex_data_st = type { ptr, ptr }

; Function Attrs: nounwind uwtable
define i32 @ossl_dsa_check_pub_key(ptr noundef %0, ptr noundef %1, ptr noundef %2) #0 {
  %4 = alloca i32, align 4
  %5 = alloca ptr, align 8
  %6 = alloca ptr, align 8
  %7 = alloca ptr, align 8
  store ptr %0, ptr %5, align 8, !tbaa !3
  store ptr %1, ptr %6, align 8, !tbaa !27
  store ptr %2, ptr %7, align 8, !tbaa !10
  %8 = load ptr, ptr %5, align 8, !tbaa !3
  %9 = load ptr, ptr %7, align 8, !tbaa !10
  %10 = call i32 @dsa_precheck_params(ptr noundef %8, ptr noundef %9)
  %11 = icmp ne i32 %10, 0
  br i1 %11, label %13, label %12

12:                                               ; preds = %3
  store i32 0, ptr %4, align 4
  br label %27

13:                                               ; preds = %3
  %14 = load ptr, ptr %5, align 8, !tbaa !3
  %15 = getelementptr inbounds nuw %struct.dsa_st, ptr %14, i32 0, i32 2
  %16 = load ptr, ptr %6, align 8, !tbaa !27
  %17 = load ptr, ptr %7, align 8, !tbaa !10
  %18 = call i32 @ossl_ffc_validate_public_key(ptr noundef %15, ptr noundef %16, ptr noundef %17)
  %19 = icmp ne i32 %18, 0
  br i1 %19, label %20, label %24

20:                                               ; preds = %13
  %21 = load ptr, ptr %7, align 8, !tbaa !10
  %22 = load i32, ptr %21, align 4, !tbaa !8
  %23 = icmp eq i32 %22, 0
  br label %24

24:                                               ; preds = %20, %13
  %25 = phi i1 [ false, %13 ], [ %23, %20 ]
  %26 = zext i1 %25 to i32
  store i32 %26, ptr %4, align 4
  br label %27

27:                                               ; preds = %24, %12
  %28 = load i32, ptr %4, align 4
  ret i32 %28
}