; Function Attrs: nounwind uwtable
define range(i32 0, 2) i32 @ossl_dsa_check_pub_key(ptr noundef %0, ptr noundef %1, ptr noundef %2) local_unnamed_addr #0 {
  %4 = tail call fastcc i32 @dsa_precheck_params(ptr noundef %0, ptr noundef %2)
  %.not = icmp eq i32 %4, 0
  br i1 %.not, label %12, label %5

5:                                                ; preds = %3
  %6 = getelementptr inbounds nuw i8, ptr %0, i64 8
  %7 = tail call i32 @ossl_ffc_validate_public_key(ptr noundef nonnull %6, ptr noundef %1, ptr noundef %2) #2
  %.not6 = icmp eq i32 %7, 0
  br i1 %.not6, label %12, label %8

8:                                                ; preds = %5
  %9 = load i32, ptr %2, align 4, !tbaa !22
  %10 = icmp eq i32 %9, 0
  %11 = zext i1 %10 to i32
  br label %12

12:                                               ; preds = %5, %8, %3
  %.0 = phi i32 [ 0, %3 ], [ 0, %5 ], [ %11, %8 ]
  ret i32 %.0
}